target datalayout = "e-m:e-p270:32:32-p271:32:32-p272:64:64-i64:64-i128:128-f80:128-n8:16:32:64-S128"
target triple = "x86_64-pc-linux-gnu"

%struct.buftag = type { i32, i32, i32, i32, i32 }
%struct.HASHCTL = type { i64, i64, i64, i64, i64, i64, ptr, ptr, ptr, ptr, ptr, ptr }
%struct.BufferDesc = type { %struct.buftag, i32, %struct.pg_atomic_uint32, i32, i32, %struct.LWLock }
%struct.pg_atomic_uint32 = type { i32 }
%struct.LWLock = type { i16, %struct.pg_atomic_uint32, %struct.proclist_head }
%struct.proclist_head = type { i32, i32 }

@NLocBuffer = dso_local global i32 0, align 4
@LocalBufferDescriptors = dso_local global ptr null, align 8
@LocalBufferBlockPointers = dso_local global ptr null, align 8
@LocalRefCount = dso_local global ptr null, align 8
@LocalBufHash = internal global ptr null, align 8
@.str.1 = private unnamed_addr constant [11 x i8] c"localbuf.c\00", align 1
@num_temp_buffers = external global i32, align 4
@nextFreeLocalBufId = internal global i32 0, align 4
@ParallelWorkerNumber = external global i32, align 4
@.str.7 = private unnamed_addr constant [59 x i8] c"cannot access temporary tables during a parallel operation\00", align 1
@__func__.InitLocalBuffers = private unnamed_addr constant [17 x i8] c"InitLocalBuffers\00", align 1
@.str.8 = private unnamed_addr constant [14 x i8] c"out of memory\00", align 1
@.str.9 = private unnamed_addr constant [26 x i8] c"Local Buffer Lookup Table\00", align 1
@.str.10 = private unnamed_addr constant [45 x i8] c"could not initialize local buffer hash table\00", align 1

; Function Attrs: inlinehint nounwind uwtable
define internal ptr @GetLocalBufferDescriptor(i32 noundef %0) #3 {
  %2 = alloca i32, align 4
  store i32 %0, ptr %2, align 4
  %3 = load ptr, ptr @LocalBufferDescriptors, align 8
  %4 = load i32, ptr %2, align 4
  %5 = zext i32 %4 to i64
  %6 = getelementptr inbounds nuw %struct.BufferDesc, ptr %3, i64 %5
  ret ptr %6
}

; Function Attrs: nounwind uwtable
define internal void @InitLocalBuffers() #0 {
  %1 = alloca i32, align 4
  %2 = alloca %struct.HASHCTL, align 8
  %3 = alloca i32, align 4
  %4 = alloca ptr, align 8
  call void @llvm.lifetime.start.p0(i64 4, ptr %1) #9
  %5 = load i32, ptr @num_temp_buffers, align 4
  store i32 %5, ptr %1, align 4
  call void @llvm.lifetime.start.p0(i64 96, ptr %2) #9
  call void @llvm.lifetime.start.p0(i64 4, ptr %3) #9
  %6 = load i32, ptr @ParallelWorkerNumber, align 4
  %7 = icmp sge i32 %6, 0
  br i1 %7, label %8, label %20

8:                                                ; preds = %0
  br label %9

9:                                                ; preds = %8
  br i1 true, label %10, label %12

10:                                               ; preds = %9
  %11 = call zeroext i1 @errstart_cold(i32 noundef 21, ptr noundef null) #10
  br i1 %11, label %14, label %17

12:                                               ; preds = %9
  %13 = call zeroext i1 @errstart(i32 noundef 21, ptr noundef null)
  br i1 %13, label %14, label %17

14:                                               ; preds = %12, %10
  %15 = call i32 @errcode(i32 noundef 322)
  %16 = call i32 (ptr, ...) @errmsg(ptr noundef @.str.7)
  call void @errfinish(ptr noundef @.str.1, i32 noundef 598, ptr noundef @__func__.InitLocalBuffers)
  br label %17

17:                                               ; preds = %14, %12, %10
  unreachable

18:                                               ; No predecessors!
  br label %19

19:                                               ; preds = %18
  br label %20

20:                                               ; preds = %19, %0
  %21 = load i32, ptr %1, align 4
  %22 = sext i32 %21 to i64
  %23 = call noalias ptr @calloc(i64 noundef %22, i64 noundef 52) #11
  store ptr %23, ptr @LocalBufferDescriptors, align 8
  %24 = load i32, ptr %1, align 4
  %25 = sext i32 %24 to i64
  %26 = call noalias ptr @calloc(i64 noundef %25, i64 noundef 8) #11
  store ptr %26, ptr @LocalBufferBlockPointers, align 8
  %27 = load i32, ptr %1, align 4
  %28 = sext i32 %27 to i64
  %29 = call noalias ptr @calloc(i64 noundef %28, i64 noundef 4) #11
  store ptr %29, ptr @LocalRefCount, align 8
  %30 = load ptr, ptr @LocalBufferDescriptors, align 8
  %31 = icmp ne ptr %30, null
  br i1 %31, label %32, label %38

32:                                               ; preds = %20
  %33 = load ptr, ptr @LocalBufferBlockPointers, align 8
  %34 = icmp ne ptr %33, null
  br i1 %34, label %35, label %38

35:                                               ; preds = %32
  %36 = load ptr, ptr @LocalRefCount, align 8
  %37 = icmp ne ptr %36, null
  br i1 %37, label %50, label %38

38:                                               ; preds = %35, %32, %20
  br label %39

39:                                               ; preds = %38
  br i1 true, label %40, label %42

40:                                               ; preds = %39
  %41 = call zeroext i1 @errstart_cold(i32 noundef 22, ptr noundef null) #10
  br i1 %41, label %44, label %47

42:                                               ; preds = %39
  %43 = call zeroext i1 @errstart(i32 noundef 22, ptr noundef null)
  br i1 %43, label %44, label %47

44:                                               ; preds = %42, %40
  %45 = call i32 @errcode(i32 noundef 8389)
  %46 = call i32 (ptr, ...) @errmsg(ptr noundef @.str.8)
  call void @errfinish(ptr noundef @.str.1, i32 noundef 607, ptr noundef @__func__.InitLocalBuffers)
  br label %47

47:                                               ; preds = %44, %42, %40
  unreachable

48:                                               ; No predecessors!
  br label %49

49:                                               ; preds = %48
  br label %50

50:                                               ; preds = %49, %35
  store i32 0, ptr @nextFreeLocalBufId, align 4
  store i32 0, ptr %3, align 4
  br label %51

51:                                               ; preds = %63, %50
  %52 = load i32, ptr %3, align 4
  %53 = load i32, ptr %1, align 4
  %54 = icmp slt i32 %52, %53
  br i1 %54, label %55, label %66

55:                                               ; preds = %51
  call void @llvm.lifetime.start.p0(i64 8, ptr %4) #9
  %56 = load i32, ptr %3, align 4
  %57 = call ptr @GetLocalBufferDescriptor(i32 noundef %56)
  store ptr %57, ptr %4, align 8
  %58 = load i32, ptr %3, align 4
  %59 = sub i32 0, %58
  %60 = sub i32 %59, 2
  %61 = load ptr, ptr %4, align 8
  %62 = getelementptr inbounds nuw %struct.BufferDesc, ptr %61, i32 0, i32 1
  store i32 %60, ptr %62, align 4
  call void @llvm.lifetime.end.p0(i64 8, ptr %4) #9
  br label %63

63:                                               ; preds = %55
  %64 = load i32, ptr %3, align 4
  %65 = add i32 %64, 1
  store i32 %65, ptr %3, align 4
  br label %51, !llvm.loop !4

66:                                               ; preds = %51
  %67 = getelementptr inbounds nuw %struct.HASHCTL, ptr %2, i32 0, i32 4
  store i64 20, ptr %67, align 8
  %68 = getelementptr inbounds nuw %struct.HASHCTL, ptr %2, i32 0, i32 5
  store i64 24, ptr %68, align 8
  %69 = load i32, ptr %1, align 4
  %70 = sext i32 %69 to i64
  %71 = call ptr @hash_create(ptr noundef @.str.9, i64 noundef %70, ptr noundef %2, i32 noundef 40)
  store ptr %71, ptr @LocalBufHash, align 8
  %72 = load ptr, ptr @LocalBufHash, align 8
  %73 = icmp ne ptr %72, null
  br i1 %73, label %85, label %74

74:                                               ; preds = %66
  br label %75

75:                                               ; preds = %74
  br i1 true, label %76, label %78

76:                                               ; preds = %75
  %77 = call zeroext i1 @errstart_cold(i32 noundef 21, ptr noundef null) #10
  br i1 %77, label %80, label %82

78:                                               ; preds = %75
  %79 = call zeroext i1 @errstart(i32 noundef 21, ptr noundef null)
  br i1 %79, label %80, label %82

80:                                               ; preds = %78, %76
  %81 = call i32 (ptr, ...) @errmsg_internal(ptr noundef @.str.10)
  call void @errfinish(ptr noundef @.str.1, i32 noundef 642, ptr noundef @__func__.InitLocalBuffers)
  br label %82

82:                                               ; preds = %80, %78, %76
  unreachable

83:                                               ; No predecessors!
  br label %84

84:                                               ; preds = %83
  br label %85

85:                                               ; preds = %84, %66
  %86 = load i32, ptr %1, align 4
  store i32 %86, ptr @NLocBuffer, align 4
  call void @llvm.lifetime.end.p0(i64 4, ptr %3) #9
  call void @llvm.lifetime.end.p0(i64 96, ptr %2) #9
  call void @llvm.lifetime.end.p0(i64 4, ptr %1) #9
  ret void
}