; Function Attrs: nounwind uwtable
define internal fastcc void @InitLocalBuffers() unnamed_addr #0 {
  %1 = alloca %struct.HASHCTL, align 8
  %2 = load i32, ptr @num_temp_buffers, align 4
  call void @llvm.lifetime.start.p0(i64 96, ptr nonnull %1) #14
  %3 = load i32, ptr @ParallelWorkerNumber, align 4
  %4 = icmp sgt i32 %3, -1
  br i1 %4, label %5, label %9

5:                                                ; preds = %0
  %6 = tail call zeroext i1 @errstart_cold(i32 noundef 21, ptr noundef null) #15
  tail call void @llvm.assume(i1 %6)
  %7 = tail call i32 @errcode(i32 noundef 322) #14
  %8 = tail call i32 (ptr, ...) @errmsg(ptr noundef nonnull @.str.7) #14
  tail call void @errfinish(ptr noundef nonnull @.str.1, i32 noundef 598, ptr noundef nonnull @__func__.InitLocalBuffers) #14
  unreachable

9:                                                ; preds = %0
  %10 = sext i32 %2 to i64
  %11 = tail call noalias ptr @calloc(i64 noundef %10, i64 noundef 52) #16
  store ptr %11, ptr @LocalBufferDescriptors, align 8
  %12 = tail call noalias ptr @calloc(i64 noundef %10, i64 noundef 8) #16
  store ptr %12, ptr @LocalBufferBlockPointers, align 8
  %13 = tail call noalias ptr @calloc(i64 noundef %10, i64 noundef 4) #16
  store ptr %13, ptr @LocalRefCount, align 8
  %14 = icmp ne ptr %11, null
  %15 = icmp ne ptr %12, null
  %or.cond = and i1 %14, %15
  %16 = icmp ne ptr %13, null
  %or.cond3 = and i1 %or.cond, %16
  br i1 %or.cond3, label %21, label %17

17:                                               ; preds = %9
  %18 = tail call zeroext i1 @errstart_cold(i32 noundef 22, ptr noundef null) #15
  tail call void @llvm.assume(i1 %18)
  %19 = tail call i32 @errcode(i32 noundef 8389) #14
  %20 = tail call i32 (ptr, ...) @errmsg(ptr noundef nonnull @.str.8) #14
  tail call void @errfinish(ptr noundef nonnull @.str.1, i32 noundef 607, ptr noundef nonnull @__func__.InitLocalBuffers) #14
  unreachable

21:                                               ; preds = %9
  store i32 0, ptr @nextFreeLocalBufId, align 4
  %22 = icmp sgt i32 %2, 0
  br i1 %22, label %.lr.ph.preheader, label %._crit_edge

.lr.ph.preheader:                                 ; preds = %21
  %wide.trip.count = zext nneg i32 %2 to i64
  br label %.lr.ph

.lr.ph:                                           ; preds = %.lr.ph.preheader, %.lr.ph
  %indvars.iv = phi i64 [ 0, %.lr.ph.preheader ], [ %indvars.iv.next, %.lr.ph ]
  %23 = load ptr, ptr @LocalBufferDescriptors, align 8
  %24 = getelementptr inbounds nuw %struct.BufferDesc, ptr %23, i64 %indvars.iv, i32 1
  %25 = trunc i64 %indvars.iv to i32
  %26 = sub i32 -2, %25
  store i32 %26, ptr %24, align 4
  %indvars.iv.next = add nuw nsw i64 %indvars.iv, 1
  %exitcond.not = icmp eq i64 %indvars.iv.next, %wide.trip.count
  br i1 %exitcond.not, label %._crit_edge, label %.lr.ph, !llvm.loop !4

._crit_edge:                                      ; preds = %.lr.ph, %21
  %27 = getelementptr inbounds nuw i8, ptr %1, i64 32
  store i64 20, ptr %27, align 8
  %28 = getelementptr inbounds nuw i8, ptr %1, i64 40
  store i64 24, ptr %28, align 8
  %29 = call ptr @hash_create(ptr noundef nonnull @.str.9, i64 noundef %10, ptr noundef nonnull %1, i32 noundef 40) #14
  store ptr %29, ptr @LocalBufHash, align 8
  %.not = icmp eq ptr %29, null
  br i1 %.not, label %30, label %33

30:                                               ; preds = %._crit_edge
  %31 = call zeroext i1 @errstart_cold(i32 noundef 21, ptr noundef null) #15
  call void @llvm.assume(i1 %31)
  %32 = call i32 (ptr, ...) @errmsg_internal(ptr noundef nonnull @.str.10) #14
  call void @errfinish(ptr noundef nonnull @.str.1, i32 noundef 642, ptr noundef nonnull @__func__.InitLocalBuffers) #14
  unreachable

33:                                               ; preds = %._crit_edge
  store i32 %2, ptr @NLocBuffer, align 4
  call void @llvm.lifetime.end.p0(i64 96, ptr nonnull %1) #14
  ret void
}